; Function Attrs: mustprogress uwtable
define hidden void @_ZN13pdecl_manager9del_declsEv(ptr noundef nonnull align 8 dereferenceable(192) %this) local_unnamed_addr #3 align 2 {
entry:
  %m_to_delete = getelementptr inbounds i8, ptr %this, i64 80
  %0 = load ptr, ptr %m_to_delete, align 8
  %cmp.i2 = icmp eq ptr %0, null
  br i1 %cmp.i2, label %while.end, label %_ZNK6vectorIP5pdeclLb0EjE5emptyEv.exit

_ZNK6vectorIP5pdeclLb0EjE5emptyEv.exit:           ; preds = %entry, %_ZN6vectorIP5pdeclLb0EjE4backEv.exit
  %1 = phi ptr [ %6, %_ZN6vectorIP5pdeclLb0EjE4backEv.exit ], [ %0, %entry ]
  %arrayidx.i = getelementptr inbounds i8, ptr %1, i64 -4
  %2 = load i32, ptr %arrayidx.i, align 4
  %cmp3.i = icmp eq i32 %2, 0
  br i1 %cmp3.i, label %while.end, label %_ZN6vectorIP5pdeclLb0EjE4backEv.exit

_ZN6vectorIP5pdeclLb0EjE4backEv.exit:             ; preds = %_ZNK6vectorIP5pdeclLb0EjE5emptyEv.exit
  %3 = add i32 %2, -1
  %4 = zext i32 %3 to i64
  %arrayidx.i1.i = getelementptr inbounds ptr, ptr %1, i64 %4
  %5 = load ptr, ptr %arrayidx.i1.i, align 8
  store i32 %3, ptr %arrayidx.i, align 4
  tail call void @_ZN13pdecl_manager8del_declEP5pdecl(ptr noundef nonnull align 8 dereferenceable(192) %this, ptr noundef %5)
  %6 = load ptr, ptr %m_to_delete, align 8
  %cmp.i = icmp eq ptr %6, null
  br i1 %cmp.i, label %while.end, label %_ZNK6vectorIP5pdeclLb0EjE5emptyEv.exit, !llvm.loop !9

while.end:                                        ; preds = %_ZNK6vectorIP5pdeclLb0EjE5emptyEv.exit, %_ZN6vectorIP5pdeclLb0EjE4backEv.exit, %entry
  ret void
}